; Function Attrs: mustprogress uwtable
define noundef zeroext i1 @_ZNK8facebook5velox4exec4Expr19throwArgumentErrorsERKNS1_7EvalCtxE(ptr nocapture noundef nonnull readonly align 8 dereferenceable(442) %this, ptr nocapture noundef nonnull readonly align 8 dereferenceable(104) %context) local_unnamed_addr #3 align 2 {
entry:
  %vectorFunction_ = getelementptr inbounds i8, ptr %this, i64 80
  %0 = load ptr, ptr %vectorFunction_, align 8
  %vtable = load ptr, ptr %0, align 8
  %vfn = getelementptr inbounds i8, ptr %vtable, i64 32
  %1 = load ptr, ptr %vfn, align 8
  %call2 = tail call noundef zeroext i1 %1(ptr noundef nonnull align 8 dereferenceable(8) %0)
  %throwOnError_.i = getelementptr inbounds i8, ptr %context, i64 73
  %2 = load i8, ptr %throwOnError_.i, align 1
  %3 = and i8 %2, 1
  %tobool.i.not = icmp ne i8 %3, 0
  %brmerge.not = and i1 %call2, %tobool.i.not
  br i1 %brmerge.not, label %lor.rhs, label %land.end7

lor.rhs:                                          ; preds = %entry
  %supportsFlatNoNullsFastPath_.i = getelementptr inbounds i8, ptr %this, i64 97
  %4 = load i8, ptr %supportsFlatNoNullsFastPath_.i, align 1
  %5 = and i8 %4, 1
  %tobool.i2.not = icmp eq i8 %5, 0
  br i1 %tobool.i2.not, label %land.end7, label %land.rhs5

land.rhs5:                                        ; preds = %lor.rhs
  %inputFlatNoNulls_.i = getelementptr inbounds i8, ptr %context, i64 25
  %6 = load i8, ptr %inputFlatNoNulls_.i, align 1
  %7 = and i8 %6, 1
  %tobool.i3 = icmp ne i8 %7, 0
  br label %land.end7

land.end7:                                        ; preds = %entry, %land.rhs5, %lor.rhs
  %8 = phi i1 [ %tobool.i.not, %entry ], [ false, %lor.rhs ], [ %tobool.i3, %land.rhs5 ]
  ret i1 %8
}